target datalayout = "e-m:e-p270:32:32-p271:32:32-p272:64:64-i64:64-i128:128-f80:128-n8:16:32:64-S128"
target triple = "x86_64-pc-linux-gnu"

%struct.archive_read = type { %struct.archive, ptr, i32, i64, i64, %struct.archive_read_client, [16 x %struct.archive_read_filter_bidder], ptr, i32, i64, i32, i32, [16 x %struct.archive_format_descriptor], ptr, ptr, ptr, %struct.anon }
%struct.archive = type { i32, i32, ptr, i32, ptr, i32, i32, ptr, %struct.archive_string, ptr, i32, i32, ptr, ptr, i64, i64, i64, i8, i64 }
%struct.archive_string = type { ptr, i64, i64 }
%struct.archive_read_client = type { ptr, ptr, ptr, ptr, ptr, ptr, i32, i32, i64, ptr }
%struct.archive_read_filter_bidder = type { ptr, ptr, ptr }
%struct.archive_format_descriptor = type { ptr, ptr, ptr, ptr, ptr, ptr, ptr, ptr, ptr, ptr, ptr }
%struct.anon = type { ptr, ptr, i32, ptr, ptr }
%struct._7zip = type { %struct._7z_stream_info, i32, i32, i64, i64, i64, i64, i64, i64, ptr, ptr, ptr, i64, i64, i64, i8, ptr, ptr, i64, i64, i64, i32, i64, i32, i32, i64, i64, i64, i64, %struct.lzma_stream, i32, %struct.bz_stream, i32, %struct.z_stream_s, i32, ptr, i32, i32, %struct.CPpmd7, %struct.CPpmd7z_RangeDec, %struct.IByteIn, %struct.anon.0, i32, i32, i64, [4 x i8], i64, i32, i32, i64, [3 x ptr], [3 x i64], [3 x i64], ptr, i64, i64, i64, [258 x i16], i8, i32, i32, i64, ptr, [64 x i8], i32 }
%struct._7z_stream_info = type { %struct._7z_pack_info, %struct._7z_coders_info, %struct._7z_substream_info }
%struct._7z_pack_info = type { i64, i64, ptr, %struct._7z_digests, ptr }
%struct._7z_digests = type { ptr, ptr }
%struct._7z_coders_info = type { i64, ptr, i64 }
%struct._7z_substream_info = type { i64, ptr, ptr, ptr }
%struct.lzma_stream = type { ptr, i64, i64, ptr, i64, i64, ptr, ptr, ptr, ptr, ptr, ptr, i64, i64, i64, i64, i32, i32 }
%struct.bz_stream = type { ptr, i32, i32, i32, ptr, i32, i32, i32, ptr, ptr, ptr, ptr }
%struct.z_stream_s = type { ptr, i32, i64, ptr, i32, i64, ptr, ptr, ptr, ptr, ptr, i32, i64, i64 }
%struct.CPpmd7 = type { ptr, ptr, ptr, i32, i32, i32, i32, i32, i32, i32, i32, i32, ptr, ptr, ptr, ptr, ptr, i32, [38 x i8], [128 x i8], [38 x i32], [256 x i8], [256 x i8], [256 x i8], %struct.CPpmd_See, [25 x [16 x %struct.CPpmd_See]], [128 x [64 x i16]] }
%struct.CPpmd_See = type { i16, i8, i8 }
%struct.CPpmd7z_RangeDec = type { %struct.IPpmd7_RangeDec, i32, i32, i32, i32, ptr }
%struct.IPpmd7_RangeDec = type { ptr, ptr, ptr }
%struct.IByteIn = type { ptr, ptr }
%struct.anon.0 = type { ptr, i64, i64, i64, ptr, i64, i64, i32 }

@.str.18 = private unnamed_addr constant [22 x i8] c"Damaged 7-Zip archive\00", align 1

; Function Attrs: nounwind uwtable
define internal i32 @seek_pack(ptr noundef %0) #0 {
  %2 = alloca i32, align 4
  %3 = alloca ptr, align 8
  %4 = alloca ptr, align 8
  %5 = alloca i64, align 8
  %6 = alloca i32, align 4
  store ptr %0, ptr %3, align 8, !tbaa !9
  call void @llvm.lifetime.start.p0(i64 8, ptr %4) #12
  %7 = load ptr, ptr %3, align 8, !tbaa !9
  %8 = getelementptr inbounds nuw %struct.archive_read, ptr %7, i32 0, i32 13
  %9 = load ptr, ptr %8, align 8, !tbaa !51
  %10 = getelementptr inbounds nuw %struct.archive_format_descriptor, ptr %9, i32 0, i32 0
  %11 = load ptr, ptr %10, align 8, !tbaa !64
  store ptr %11, ptr %4, align 8, !tbaa !13
  call void @llvm.lifetime.start.p0(i64 8, ptr %5) #12
  %12 = load ptr, ptr %4, align 8, !tbaa !13
  %13 = getelementptr inbounds nuw %struct._7zip, ptr %12, i32 0, i32 24
  %14 = load i32, ptr %13, align 4, !tbaa !124
  %15 = icmp ule i32 %14, 0
  br i1 %15, label %16, label %19

16:                                               ; preds = %1
  %17 = load ptr, ptr %3, align 8, !tbaa !9
  %18 = getelementptr inbounds nuw %struct.archive_read, ptr %17, i32 0, i32 0
  call void (ptr, i32, ptr, ...) @archive_set_error(ptr noundef %18, i32 noundef -1, ptr noundef @.str.18)
  store i32 -30, ptr %2, align 4
  store i32 1, ptr %6, align 4
  br label %72

19:                                               ; preds = %1
  %20 = load ptr, ptr %4, align 8, !tbaa !13
  %21 = getelementptr inbounds nuw %struct._7zip, ptr %20, i32 0, i32 0
  %22 = getelementptr inbounds nuw %struct._7z_stream_info, ptr %21, i32 0, i32 0
  %23 = getelementptr inbounds nuw %struct._7z_pack_info, ptr %22, i32 0, i32 2
  %24 = load ptr, ptr %23, align 8, !tbaa !162
  %25 = load ptr, ptr %4, align 8, !tbaa !13
  %26 = getelementptr inbounds nuw %struct._7zip, ptr %25, i32 0, i32 23
  %27 = load i32, ptr %26, align 8, !tbaa !125
  %28 = zext i32 %27 to i64
  %29 = getelementptr inbounds nuw i64, ptr %24, i64 %28
  %30 = load i64, ptr %29, align 8, !tbaa !45
  %31 = load ptr, ptr %4, align 8, !tbaa !13
  %32 = getelementptr inbounds nuw %struct._7zip, ptr %31, i32 0, i32 25
  store i64 %30, ptr %32, align 8, !tbaa !153
  %33 = load ptr, ptr %4, align 8, !tbaa !13
  %34 = getelementptr inbounds nuw %struct._7zip, ptr %33, i32 0, i32 0
  %35 = getelementptr inbounds nuw %struct._7z_stream_info, ptr %34, i32 0, i32 0
  %36 = getelementptr inbounds nuw %struct._7z_pack_info, ptr %35, i32 0, i32 4
  %37 = load ptr, ptr %36, align 8, !tbaa !163
  %38 = load ptr, ptr %4, align 8, !tbaa !13
  %39 = getelementptr inbounds nuw %struct._7zip, ptr %38, i32 0, i32 23
  %40 = load i32, ptr %39, align 8, !tbaa !125
  %41 = zext i32 %40 to i64
  %42 = getelementptr inbounds nuw i64, ptr %37, i64 %41
  %43 = load i64, ptr %42, align 8, !tbaa !45
  store i64 %43, ptr %5, align 8, !tbaa !45
  %44 = load ptr, ptr %4, align 8, !tbaa !13
  %45 = getelementptr inbounds nuw %struct._7zip, ptr %44, i32 0, i32 20
  %46 = load i64, ptr %45, align 8, !tbaa !115
  %47 = load i64, ptr %5, align 8, !tbaa !45
  %48 = icmp ne i64 %46, %47
  br i1 %48, label %49, label %63

49:                                               ; preds = %19
  %50 = load ptr, ptr %3, align 8, !tbaa !9
  %51 = load i64, ptr %5, align 8, !tbaa !45
  %52 = load ptr, ptr %4, align 8, !tbaa !13
  %53 = getelementptr inbounds nuw %struct._7zip, ptr %52, i32 0, i32 6
  %54 = load i64, ptr %53, align 8, !tbaa !114
  %55 = add i64 %51, %54
  %56 = call i64 @__archive_read_seek(ptr noundef %50, i64 noundef %55, i32 noundef 0)
  %57 = icmp sgt i64 0, %56
  br i1 %57, label %58, label %59

58:                                               ; preds = %49
  store i32 -30, ptr %2, align 4
  store i32 1, ptr %6, align 4
  br label %72

59:                                               ; preds = %49
  %60 = load i64, ptr %5, align 8, !tbaa !45
  %61 = load ptr, ptr %4, align 8, !tbaa !13
  %62 = getelementptr inbounds nuw %struct._7zip, ptr %61, i32 0, i32 20
  store i64 %60, ptr %62, align 8, !tbaa !115
  br label %63

63:                                               ; preds = %59, %19
  %64 = load ptr, ptr %4, align 8, !tbaa !13
  %65 = getelementptr inbounds nuw %struct._7zip, ptr %64, i32 0, i32 23
  %66 = load i32, ptr %65, align 8, !tbaa !125
  %67 = add i32 %66, 1
  store i32 %67, ptr %65, align 8, !tbaa !125
  %68 = load ptr, ptr %4, align 8, !tbaa !13
  %69 = getelementptr inbounds nuw %struct._7zip, ptr %68, i32 0, i32 24
  %70 = load i32, ptr %69, align 4, !tbaa !124
  %71 = add i32 %70, -1
  store i32 %71, ptr %69, align 4, !tbaa !124
  store i32 0, ptr %2, align 4
  store i32 1, ptr %6, align 4
  br label %72

72:                                               ; preds = %63, %58, %16
  call void @llvm.lifetime.end.p0(i64 8, ptr %5) #12
  call void @llvm.lifetime.end.p0(i64 8, ptr %4) #12
  %73 = load i32, ptr %2, align 4
  ret i32 %73
}