; Function Attrs: nounwind uwtable
define internal fastcc range(i32 -30, 1) i32 @seek_pack(ptr noundef %0) unnamed_addr #0 {
  %2 = getelementptr inbounds nuw i8, ptr %0, i64 2072
  %3 = load ptr, ptr %2, align 8, !tbaa !41
  %4 = load ptr, ptr %3, align 8, !tbaa !55
  %5 = getelementptr inbounds nuw i8, ptr %4, i64 276
  %6 = load i32, ptr %5, align 4, !tbaa !135
  %7 = icmp eq i32 %6, 0
  br i1 %7, label %8, label %9

8:                                                ; preds = %1
  tail call void (ptr, i32, ptr, ...) @archive_set_error(ptr noundef nonnull %0, i32 noundef -1, ptr noundef nonnull @.str.18) #17
  br label %36

9:                                                ; preds = %1
  %10 = getelementptr inbounds nuw i8, ptr %4, i64 16
  %11 = load ptr, ptr %10, align 8, !tbaa !152
  %12 = getelementptr inbounds nuw i8, ptr %4, i64 272
  %13 = load i32, ptr %12, align 8, !tbaa !137
  %14 = zext i32 %13 to i64
  %15 = getelementptr inbounds nuw i64, ptr %11, i64 %14
  %16 = load i64, ptr %15, align 8, !tbaa !38
  %17 = getelementptr inbounds nuw i8, ptr %4, i64 280
  store i64 %16, ptr %17, align 8, !tbaa !151
  %18 = getelementptr inbounds nuw i8, ptr %4, i64 40
  %19 = load ptr, ptr %18, align 8, !tbaa !153
  %20 = getelementptr inbounds nuw i64, ptr %19, i64 %14
  %21 = load i64, ptr %20, align 8, !tbaa !38
  %22 = getelementptr inbounds nuw i8, ptr %4, i64 248
  %23 = load i64, ptr %22, align 8, !tbaa !63
  %.not = icmp eq i64 %23, %21
  br i1 %.not, label %31, label %24

24:                                               ; preds = %9
  %25 = getelementptr inbounds nuw i8, ptr %4, i64 136
  %26 = load i64, ptr %25, align 8, !tbaa !62
  %27 = add i64 %26, %21
  %28 = tail call i64 @__archive_read_seek(ptr noundef nonnull %0, i64 noundef %27, i32 noundef 0) #17
  %29 = icmp slt i64 %28, 0
  br i1 %29, label %36, label %30

30:                                               ; preds = %24
  store i64 %21, ptr %22, align 8, !tbaa !63
  %.pre = load i32, ptr %12, align 8, !tbaa !137
  %.pre18 = load i32, ptr %5, align 4, !tbaa !135
  br label %31

31:                                               ; preds = %30, %9
  %32 = phi i32 [ %.pre18, %30 ], [ %6, %9 ]
  %33 = phi i32 [ %.pre, %30 ], [ %13, %9 ]
  %34 = add i32 %33, 1
  store i32 %34, ptr %12, align 8, !tbaa !137
  %35 = add i32 %32, -1
  store i32 %35, ptr %5, align 4, !tbaa !135
  br label %36

36:                                               ; preds = %24, %31, %8
  %.0 = phi i32 [ -30, %8 ], [ 0, %31 ], [ -30, %24 ]
  ret i32 %.0
}